; ModuleID = '56/362.c'
source_filename = "56/362.c"
target datalayout = "e-m:e-p270:32:32-p271:32:32-p272:64:64-i64:64-f80:128-n8:16:32:64-S128"
target triple = "x86_64-pc-linux-gnu"

@.str = private unnamed_addr constant [3 x i8] c"%d\00", align 1
@.str.1 = private unnamed_addr constant [12 x i8] c"%d%d%d%d%d\0A\00", align 1
@.str.2 = private unnamed_addr constant [10 x i8] c"%d%d%d%d\0A\00", align 1
@.str.3 = private unnamed_addr constant [8 x i8] c"%d%d%d\0A\00", align 1
@.str.4 = private unnamed_addr constant [6 x i8] c"%d%d\0A\00", align 1
@.str.5 = private unnamed_addr constant [4 x i8] c"%d\0A\00", align 1

; Function Attrs: noinline nounwind uwtable
define dso_local i32 @main(i32 %0, i8** %1) #0 {
  %3 = alloca i32, align 4
  %4 = alloca i32, align 4
  %5 = alloca i8**, align 8
  %6 = alloca i32, align 4
  %7 = alloca i32, align 4
  %8 = alloca i32, align 4
  %9 = alloca i32, align 4
  %10 = alloca i32, align 4
  %11 = alloca i32, align 4
  store i32 0, i32* %3, align 4
  store i32 %0, i32* %4, align 4
  store i8** %1, i8*** %5, align 8
  %12 = call i32 (i8*, ...) @__isoc99_scanf(i8* getelementptr inbounds ([3 x i8], [3 x i8]* @.str, i64 0, i64 0), i32* %6)
  %13 = load i32, i32* %6, align 4
  %14 = sdiv i32 %13, 10000
  store i32 %14, i32* %7, align 4
  %15 = load i32, i32* %6, align 4
  %16 = load i32, i32* %7, align 4
  %17 = mul nsw i32 %16, 10000
  %18 = sub nsw i32 %15, %17
  %19 = sdiv i32 %18, 1000
  store i32 %19, i32* %8, align 4
  %20 = load i32, i32* %6, align 4
  %21 = load i32, i32* %7, align 4
  %22 = mul nsw i32 %21, 10000
  %23 = sub nsw i32 %20, %22
  %24 = load i32, i32* %8, align 4
  %25 = mul nsw i32 %24, 1000
  %26 = sub nsw i32 %23, %25
  %27 = sdiv i32 %26, 100
  store i32 %27, i32* %9, align 4
  %28 = load i32, i32* %6, align 4
  %29 = load i32, i32* %7, align 4
  %30 = mul nsw i32 %29, 10000
  %31 = sub nsw i32 %28, %30
  %32 = load i32, i32* %8, align 4
  %33 = mul nsw i32 %32, 1000
  %34 = sub nsw i32 %31, %33
  %35 = load i32, i32* %9, align 4
  %36 = mul nsw i32 %35, 100
  %37 = sub nsw i32 %34, %36
  %38 = sdiv i32 %37, 10
  store i32 %38, i32* %10, align 4
  %39 = load i32, i32* %6, align 4
  %40 = load i32, i32* %7, align 4
  %41 = mul nsw i32 %40, 10000
  %42 = sub nsw i32 %39, %41
  %43 = load i32, i32* %8, align 4
  %44 = mul nsw i32 %43, 1000
  %45 = sub nsw i32 %42, %44
  %46 = load i32, i32* %9, align 4
  %47 = mul nsw i32 %46, 100
  %48 = sub nsw i32 %45, %47
  %49 = load i32, i32* %10, align 4
  %50 = mul nsw i32 %49, 10
  %51 = sub nsw i32 %48, %50
  %52 = sdiv i32 %51, 1
  store i32 %52, i32* %11, align 4
  %53 = load i32, i32* %7, align 4
  %54 = icmp ne i32 %53, 0
  br i1 %54, label %55, label %62

55:                                               ; preds = %2
  %56 = load i32, i32* %11, align 4
  %57 = load i32, i32* %10, align 4
  %58 = load i32, i32* %9, align 4
  %59 = load i32, i32* %8, align 4
  %60 = load i32, i32* %7, align 4
  %61 = call i32 (i8*, ...) @printf(i8* getelementptr inbounds ([12 x i8], [12 x i8]* @.str.1, i64 0, i64 0), i32 %56, i32 %57, i32 %58, i32 %59, i32 %60)
  br label %62

62:                                               ; preds = %55, %2
  %63 = load i32, i32* %7, align 4
  %64 = icmp eq i32 %63, 0
  br i1 %64, label %65, label %80

65:                                               ; preds = %62
  %66 = load i32, i32* %8, align 4
  %67 = icmp ne i32 %66, 0
  br i1 %67, label %68, label %80

68:                                               ; preds = %65
  %69 = load i32, i32* %9, align 4
  %70 = icmp ne i32 %69, 0
  br i1 %70, label %71, label %80

71:                                               ; preds = %68
  %72 = load i32, i32* %10, align 4
  %73 = icmp ne i32 %72, 0
  br i1 %73, label %74, label %80

74:                                               ; preds = %71
  %75 = load i32, i32* %11, align 4
  %76 = load i32, i32* %10, align 4
  %77 = load i32, i32* %9, align 4
  %78 = load i32, i32* %8, align 4
  %79 = call i32 (i8*, ...) @printf(i8* getelementptr inbounds ([10 x i8], [10 x i8]* @.str.2, i64 0, i64 0), i32 %75, i32 %76, i32 %77, i32 %78)
  br label %80

80:                                               ; preds = %74, %71, %68, %65, %62
  %81 = load i32, i32* %7, align 4
  %82 = icmp eq i32 %81, 0
  br i1 %82, label %83, label %97

83:                                               ; preds = %80
  %84 = load i32, i32* %8, align 4
  %85 = icmp eq i32 %84, 0
  br i1 %85, label %86, label %97

86:                                               ; preds = %83
  %87 = load i32, i32* %9, align 4
  %88 = icmp ne i32 %87, 0
  br i1 %88, label %89, label %97

89:                                               ; preds = %86
  %90 = load i32, i32* %10, align 4
  %91 = icmp ne i32 %90, 0
  br i1 %91, label %92, label %97

92:                                               ; preds = %89
  %93 = load i32, i32* %11, align 4
  %94 = load i32, i32* %10, align 4
  %95 = load i32, i32* %9, align 4
  %96 = call i32 (i8*, ...) @printf(i8* getelementptr inbounds ([8 x i8], [8 x i8]* @.str.3, i64 0, i64 0), i32 %93, i32 %94, i32 %95)
  br label %97

97:                                               ; preds = %92, %89, %86, %83, %80
  %98 = load i32, i32* %7, align 4
  %99 = icmp eq i32 %98, 0
  br i1 %99, label %100, label %113

100:                                              ; preds = %97
  %101 = load i32, i32* %8, align 4
  %102 = icmp eq i32 %101, 0
  br i1 %102, label %103, label %113

103:                                              ; preds = %100
  %104 = load i32, i32* %9, align 4
  %105 = icmp eq i32 %104, 0
  br i1 %105, label %106, label %113

106:                                              ; preds = %103
  %107 = load i32, i32* %10, align 4
  %108 = icmp ne i32 %107, 0
  br i1 %108, label %109, label %113

109:                                              ; preds = %106
  %110 = load i32, i32* %11, align 4
  %111 = load i32, i32* %10, align 4
  %112 = call i32 (i8*, ...) @printf(i8* getelementptr inbounds ([6 x i8], [6 x i8]* @.str.4, i64 0, i64 0), i32 %110, i32 %111)
  br label %113

113:                                              ; preds = %109, %106, %103, %100, %97
  %114 = load i32, i32* %7, align 4
  %115 = icmp eq i32 %114, 0
  br i1 %115, label %116, label %128

116:                                              ; preds = %113
  %117 = load i32, i32* %8, align 4
  %118 = icmp eq i32 %117, 0
  br i1 %118, label %119, label %128

119:                                              ; preds = %116
  %120 = load i32, i32* %9, align 4
  %121 = icmp eq i32 %120, 0
  br i1 %121, label %122, label %128

122:                                              ; preds = %119
  %123 = load i32, i32* %10, align 4
  %124 = icmp eq i32 %123, 0
  br i1 %124, label %125, label %128

125:                                              ; preds = %122
  %126 = load i32, i32* %11, align 4
  %127 = call i32 (i8*, ...) @printf(i8* getelementptr inbounds ([4 x i8], [4 x i8]* @.str.5, i64 0, i64 0), i32 %126)
  br label %128

128:                                              ; preds = %125, %122, %119, %116, %113
  ret i32 0
}

declare dso_local i32 @__isoc99_scanf(i8*, ...) #1

declare dso_local i32 @printf(i8*, ...) #1


!llvm.module.flags = !{!0}
!llvm.ident = !{!1}

!0 = !{i32 1, !"wchar_size", i32 4}
!1 = !{!"clang version 10.0.0-4ubuntu1 "}
